; Function Attrs: mustprogress nofree nounwind willreturn memory(write) uwtable
define internal noundef double @_ZN8QuantLib12_GLOBAL__N_13f_7Edd(double noundef %_nu, double noundef %_lambda) #13 {
entry:
  %call.i = tail call noundef double @pow(double noundef %_lambda, double noundef 7.000000e+00) #35, !tbaa !57
  %call.i34 = tail call noundef double @pow(double noundef %_lambda, double noundef 6.000000e+00) #35, !tbaa !57
  %mul = fmul double %call.i34, 7.000000e+00
  %add = fadd double %_nu, 1.200000e+01
  %0 = tail call double @llvm.fmuladd.f64(double %mul, double %add, double %call.i)
  %call.i35 = tail call noundef double @pow(double noundef %_lambda, double noundef 5.000000e+00) #35, !tbaa !57
  %mul4 = fmul double %call.i35, 2.100000e+01
  %1 = tail call double @llvm.fmuladd.f64(double %_nu, double 2.200000e+01, double 1.200000e+02)
  %square = fmul double %_nu, %_nu
  %add7 = fadd double %1, %square
  %2 = tail call double @llvm.fmuladd.f64(double %mul4, double %add7, double %0)
  %call.i37 = tail call noundef double @pow(double noundef %_lambda, double noundef 4.000000e+00) #35, !tbaa !57
  %mul10 = fmul double %call.i37, 3.500000e+01
  %3 = tail call double @llvm.fmuladd.f64(double %_nu, double 2.960000e+02, double 9.600000e+02)
  %4 = tail call double @llvm.fmuladd.f64(double %square, double 3.000000e+01, double %3)
  %call.i39 = tail call noundef double @pow(double noundef %_nu, double noundef 3.000000e+00) #35, !tbaa !57
  %add15 = fadd double %4, %call.i39
  %5 = tail call double @llvm.fmuladd.f64(double %mul10, double %add15, double %2)
  %call.i40 = tail call noundef double @pow(double noundef %_lambda, double noundef 3.000000e+00) #35, !tbaa !57
  %mul18 = fmul double %call.i40, 3.500000e+01
  %6 = tail call double @llvm.fmuladd.f64(double %_nu, double 2.736000e+03, double 5.760000e+03)
  %7 = tail call double @llvm.fmuladd.f64(double %square, double 4.760000e+02, double %6)
  %call.i42 = tail call noundef double @pow(double noundef %_nu, double noundef 3.000000e+00) #35, !tbaa !57
  %8 = tail call double @llvm.fmuladd.f64(double %call.i42, double 3.600000e+01, double %7)
  %call.i43 = tail call noundef double @pow(double noundef %_nu, double noundef 4.000000e+00) #35, !tbaa !57
  %add25 = fadd double %8, %call.i43
  %9 = tail call double @llvm.fmuladd.f64(double %mul18, double %add25, double %5)
  %square61 = fmul double %_lambda, %_lambda
  %mul28 = fmul double %square61, 2.100000e+01
  %10 = tail call double @llvm.fmuladd.f64(double %_nu, double 1.670400e+04, double 2.304000e+04)
  %11 = tail call double @llvm.fmuladd.f64(double %square, double 4.640000e+03, double %10)
  %call.i46 = tail call noundef double @pow(double noundef %_nu, double noundef 3.000000e+00) #35, !tbaa !57
  %12 = tail call double @llvm.fmuladd.f64(double %call.i46, double 6.200000e+02, double %11)
  %call.i47 = tail call noundef double @pow(double noundef %_nu, double noundef 4.000000e+00) #35, !tbaa !57
  %13 = tail call double @llvm.fmuladd.f64(double %call.i47, double 4.000000e+01, double %12)
  %call.i48 = tail call noundef double @pow(double noundef %_nu, double noundef 5.000000e+00) #35, !tbaa !57
  %add37 = fadd double %13, %call.i48
  %14 = tail call double @llvm.fmuladd.f64(double %mul28, double %add37, double %9)
  %mul39 = fmul double %_lambda, 7.000000e+00
  %15 = tail call double @llvm.fmuladd.f64(double %_nu, double 5.644800e+04, double 4.608000e+04)
  %16 = tail call double @llvm.fmuladd.f64(double %square, double 2.598400e+04, double %15)
  %call.i50 = tail call noundef double @pow(double noundef %_nu, double noundef 3.000000e+00) #35, !tbaa !57
  %17 = tail call double @llvm.fmuladd.f64(double %call.i50, double 5.880000e+03, double %16)
  %call.i51 = tail call noundef double @pow(double noundef %_nu, double noundef 4.000000e+00) #35, !tbaa !57
  %18 = tail call double @llvm.fmuladd.f64(double %call.i51, double 7.000000e+02, double %17)
  %call.i52 = tail call noundef double @pow(double noundef %_nu, double noundef 5.000000e+00) #35, !tbaa !57
  %19 = tail call double @llvm.fmuladd.f64(double %call.i52, double 4.200000e+01, double %18)
  %call.i53 = tail call noundef double @pow(double noundef %_nu, double noundef 6.000000e+00) #35, !tbaa !57
  %add50 = fadd double %19, %call.i53
  %20 = tail call double @llvm.fmuladd.f64(double %mul39, double %add50, double %14)
  %call.i55 = tail call noundef double @pow(double noundef %_nu, double noundef 3.000000e+00) #35, !tbaa !57
  %21 = tail call double @llvm.fmuladd.f64(double %call.i55, double 5.880000e+03, double %16)
  %call.i56 = tail call noundef double @pow(double noundef %_nu, double noundef 4.000000e+00) #35, !tbaa !57
  %22 = tail call double @llvm.fmuladd.f64(double %call.i56, double 7.000000e+02, double %21)
  %call.i57 = tail call noundef double @pow(double noundef %_nu, double noundef 5.000000e+00) #35, !tbaa !57
  %23 = tail call double @llvm.fmuladd.f64(double %call.i57, double 4.200000e+01, double %22)
  %call.i58 = tail call noundef double @pow(double noundef %_nu, double noundef 6.000000e+00) #35, !tbaa !57
  %add62 = fadd double %23, %call.i58
  %24 = tail call double @llvm.fmuladd.f64(double %_nu, double %add62, double %20)
  ret double %24
}